target datalayout = "e-m:e-p270:32:32-p271:32:32-p272:64:64-i64:64-i128:128-f80:128-n8:16:32:64-S128"
target triple = "x86_64-pc-linux-gnu"

%struct.ExprState = type { i32, i8, i8, i64, ptr, ptr, ptr, ptr, ptr, i32, i32, ptr, ptr, ptr, ptr, ptr, ptr, ptr }
%struct.ExprEvalStep = type { i64, ptr, ptr, %union.anon }
%union.anon = type { %struct.anon.23 }
%struct.anon.23 = type { ptr, ptr, i32, i32, ptr, ptr }
%struct.anon.30 = type { ptr, ptr, ptr, i32, ptr }
%struct.anon.0 = type { i32, i32, i32 }
%struct.ExprContext = type { i32, ptr, ptr, ptr, ptr, ptr, ptr, ptr, ptr, ptr, i64, i8, i64, i8, ptr, ptr, ptr, ptr }
%struct.TupleTableSlot = type { i32, i16, i16, ptr, ptr, ptr, ptr, ptr, %struct.ItemPointerData, i32 }
%struct.ItemPointerData = type { %struct.BlockIdData, i16 }
%struct.BlockIdData = type { i16, i16 }
%struct.FunctionCallInfoBaseData = type { ptr, ptr, ptr, i32, i8, i16, [0 x %struct.NullableDatum] }
%struct.NullableDatum = type { i64, i8 }

; Function Attrs: inlinehint nounwind uwtable
define internal i32 @DatumGetUInt32(i64 noundef %0) #2 {
  %2 = alloca i64, align 8
  store i64 %0, ptr %2, align 8
  %3 = load i64, ptr %2, align 8
  %4 = trunc i64 %3 to i32
  ret i32 %4
}

; Function Attrs: alwaysinline nounwind uwtable
define internal i64 @ExecJustHashVarVirtImpl(ptr noundef %0, ptr noundef %1, ptr noundef %2) #9 {
  %4 = alloca i64, align 8
  %5 = alloca ptr, align 8
  %6 = alloca ptr, align 8
  %7 = alloca ptr, align 8
  %8 = alloca ptr, align 8
  %9 = alloca ptr, align 8
  %10 = alloca ptr, align 8
  %11 = alloca i32, align 4
  %12 = alloca i32, align 4
  store ptr %0, ptr %5, align 8
  store ptr %1, ptr %6, align 8
  store ptr %2, ptr %7, align 8
  call void @llvm.lifetime.start.p0(i64 8, ptr %8) #11
  %13 = load ptr, ptr %5, align 8
  %14 = getelementptr inbounds nuw %struct.ExprState, ptr %13, i32 0, i32 5
  %15 = load ptr, ptr %14, align 8
  %16 = getelementptr inbounds %struct.ExprEvalStep, ptr %15, i64 0
  store ptr %16, ptr %8, align 8
  call void @llvm.lifetime.start.p0(i64 8, ptr %9) #11
  %17 = load ptr, ptr %5, align 8
  %18 = getelementptr inbounds nuw %struct.ExprState, ptr %17, i32 0, i32 5
  %19 = load ptr, ptr %18, align 8
  %20 = getelementptr inbounds %struct.ExprEvalStep, ptr %19, i64 1
  store ptr %20, ptr %9, align 8
  call void @llvm.lifetime.start.p0(i64 8, ptr %10) #11
  %21 = load ptr, ptr %9, align 8
  %22 = getelementptr inbounds nuw %struct.ExprEvalStep, ptr %21, i32 0, i32 3
  %23 = getelementptr inbounds nuw %struct.anon.30, ptr %22, i32 0, i32 1
  %24 = load ptr, ptr %23, align 8
  store ptr %24, ptr %10, align 8
  call void @llvm.lifetime.start.p0(i64 4, ptr %11) #11
  %25 = load ptr, ptr %8, align 8
  %26 = getelementptr inbounds nuw %struct.ExprEvalStep, ptr %25, i32 0, i32 3
  %27 = getelementptr inbounds nuw %struct.anon.0, ptr %26, i32 0, i32 0
  %28 = load i32, ptr %27, align 8
  store i32 %28, ptr %11, align 4
  %29 = load ptr, ptr %6, align 8
  %30 = getelementptr inbounds nuw %struct.TupleTableSlot, ptr %29, i32 0, i32 5
  %31 = load ptr, ptr %30, align 8
  %32 = load i32, ptr %11, align 4
  %33 = sext i32 %32 to i64
  %34 = getelementptr inbounds i64, ptr %31, i64 %33
  %35 = load i64, ptr %34, align 8
  %36 = load ptr, ptr %10, align 8
  %37 = getelementptr inbounds nuw %struct.FunctionCallInfoBaseData, ptr %36, i32 0, i32 6
  %38 = getelementptr inbounds [0 x %struct.NullableDatum], ptr %37, i64 0, i64 0
  %39 = getelementptr inbounds nuw %struct.NullableDatum, ptr %38, i32 0, i32 0
  store i64 %35, ptr %39, align 8
  %40 = load ptr, ptr %6, align 8
  %41 = getelementptr inbounds nuw %struct.TupleTableSlot, ptr %40, i32 0, i32 6
  %42 = load ptr, ptr %41, align 8
  %43 = load i32, ptr %11, align 4
  %44 = sext i32 %43 to i64
  %45 = getelementptr inbounds i8, ptr %42, i64 %44
  %46 = load i8, ptr %45, align 1, !range !7, !noundef !8
  %47 = trunc i8 %46 to i1
  %48 = load ptr, ptr %10, align 8
  %49 = getelementptr inbounds nuw %struct.FunctionCallInfoBaseData, ptr %48, i32 0, i32 6
  %50 = getelementptr inbounds [0 x %struct.NullableDatum], ptr %49, i64 0, i64 0
  %51 = getelementptr inbounds nuw %struct.NullableDatum, ptr %50, i32 0, i32 1
  %52 = zext i1 %47 to i8
  store i8 %52, ptr %51, align 8
  %53 = load ptr, ptr %7, align 8
  store i8 0, ptr %53, align 1
  %54 = load ptr, ptr %10, align 8
  %55 = getelementptr inbounds nuw %struct.FunctionCallInfoBaseData, ptr %54, i32 0, i32 6
  %56 = getelementptr inbounds [0 x %struct.NullableDatum], ptr %55, i64 0, i64 0
  %57 = getelementptr inbounds nuw %struct.NullableDatum, ptr %56, i32 0, i32 1
  %58 = load i8, ptr %57, align 8, !range !7, !noundef !8
  %59 = trunc i8 %58 to i1
  br i1 %59, label %69, label %60

60:                                               ; preds = %3
  %61 = load ptr, ptr %9, align 8
  %62 = getelementptr inbounds nuw %struct.ExprEvalStep, ptr %61, i32 0, i32 3
  %63 = getelementptr inbounds nuw %struct.anon.30, ptr %62, i32 0, i32 2
  %64 = load ptr, ptr %63, align 8
  %65 = load ptr, ptr %10, align 8
  %66 = call i64 %64(ptr noundef %65)
  %67 = call i32 @DatumGetUInt32(i64 noundef %66)
  %68 = zext i32 %67 to i64
  store i64 %68, ptr %4, align 8
  store i32 1, ptr %12, align 4
  br label %70

69:                                               ; preds = %3
  store i64 0, ptr %4, align 8
  store i32 1, ptr %12, align 4
  br label %70

70:                                               ; preds = %69, %60
  call void @llvm.lifetime.end.p0(i64 4, ptr %11) #11
  call void @llvm.lifetime.end.p0(i64 8, ptr %10) #11
  call void @llvm.lifetime.end.p0(i64 8, ptr %9) #11
  call void @llvm.lifetime.end.p0(i64 8, ptr %8) #11
  %71 = load i64, ptr %4, align 8
  ret i64 %71
}

; Function Attrs: nounwind uwtable
define internal i64 @ExecJustHashInnerVarVirt(ptr noundef %0, ptr noundef %1, ptr noundef %2) #0 {
  %4 = alloca ptr, align 8
  %5 = alloca ptr, align 8
  %6 = alloca ptr, align 8
  store ptr %0, ptr %4, align 8
  store ptr %1, ptr %5, align 8
  store ptr %2, ptr %6, align 8
  %7 = load ptr, ptr %4, align 8
  %8 = load ptr, ptr %5, align 8
  %9 = getelementptr inbounds nuw %struct.ExprContext, ptr %8, i32 0, i32 2
  %10 = load ptr, ptr %9, align 8
  %11 = load ptr, ptr %6, align 8
  %12 = call i64 @ExecJustHashVarVirtImpl(ptr noundef %7, ptr noundef %10, ptr noundef %11)
  ret i64 %12
}