; Function Attrs: nounwind uwtable
define internal range(i64 0, 4294967296) i64 @ExecJustHashInnerVarVirt(ptr noundef readonly captures(none) %0, ptr noundef readonly captures(none) %1, ptr noundef writeonly captures(none) initializes((0, 1)) %2) #0 {
  %4 = getelementptr inbounds nuw i8, ptr %1, i64 16
  %5 = load ptr, ptr %4, align 8
  %6 = getelementptr inbounds nuw i8, ptr %0, i64 24
  %7 = load ptr, ptr %6, align 8
  %8 = getelementptr inbounds nuw i8, ptr %7, i64 96
  %9 = load ptr, ptr %8, align 8
  %10 = getelementptr inbounds nuw i8, ptr %7, i64 24
  %11 = load i32, ptr %10, align 8
  %12 = getelementptr inbounds nuw i8, ptr %5, i64 24
  %13 = load ptr, ptr %12, align 8
  %14 = sext i32 %11 to i64
  %15 = getelementptr inbounds i64, ptr %13, i64 %14
  %16 = load i64, ptr %15, align 8
  %17 = getelementptr inbounds nuw i8, ptr %9, i64 32
  store i64 %16, ptr %17, align 8
  %18 = getelementptr inbounds nuw i8, ptr %5, i64 32
  %19 = load ptr, ptr %18, align 8
  %20 = getelementptr inbounds i8, ptr %19, i64 %14
  %21 = load i8, ptr %20, align 1, !range !8, !noundef !9
  %22 = getelementptr inbounds nuw i8, ptr %9, i64 40
  store i8 %21, ptr %22, align 8
  store i8 0, ptr %2, align 1
  %23 = load i8, ptr %22, align 8, !range !8, !noundef !9
  %24 = trunc nuw i8 %23 to i1
  br i1 %24, label %ExecJustHashVarVirtImpl.exit, label %25

25:                                               ; preds = %3
  %26 = getelementptr inbounds nuw i8, ptr %7, i64 104
  %27 = load ptr, ptr %26, align 8
  %28 = tail call i64 %27(ptr noundef nonnull %9) #18
  %29 = and i64 %28, 4294967295
  br label %ExecJustHashVarVirtImpl.exit

ExecJustHashVarVirtImpl.exit:                     ; preds = %3, %25
  %.0.i = phi i64 [ %29, %25 ], [ 0, %3 ]
  ret i64 %.0.i
}